target datalayout = "e-m:e-p270:32:32-p271:32:32-p272:64:64-i64:64-i128:128-f80:128-n8:16:32:64-S128"
target triple = "x86_64-pc-linux-gnu"

%struct.llama_sampler_i = type { ptr, ptr, ptr, ptr, ptr, ptr }
%struct.llama_sampler = type { ptr, ptr }

; Function Attrs: mustprogress uwtable
define void @llama_sampler_free(ptr noundef %0) #0 {
  %2 = alloca ptr, align 8
  store ptr %0, ptr %2, align 8, !tbaa !12
  %3 = load ptr, ptr %2, align 8, !tbaa !12
  %4 = icmp eq ptr %3, null
  br i1 %4, label %5, label %6

5:                                                ; preds = %1
  br label %24

6:                                                ; preds = %1
  %7 = load ptr, ptr %2, align 8, !tbaa !12
  %8 = getelementptr inbounds nuw %struct.llama_sampler, ptr %7, i32 0, i32 0
  %9 = load ptr, ptr %8, align 8, !tbaa !9
  %10 = getelementptr inbounds nuw %struct.llama_sampler_i, ptr %9, i32 0, i32 5
  %11 = load ptr, ptr %10, align 8, !tbaa !24
  %12 = icmp ne ptr %11, null
  br i1 %12, label %13, label %20

13:                                               ; preds = %6
  %14 = load ptr, ptr %2, align 8, !tbaa !12
  %15 = getelementptr inbounds nuw %struct.llama_sampler, ptr %14, i32 0, i32 0
  %16 = load ptr, ptr %15, align 8, !tbaa !9
  %17 = getelementptr inbounds nuw %struct.llama_sampler_i, ptr %16, i32 0, i32 5
  %18 = load ptr, ptr %17, align 8, !tbaa !24
  %19 = load ptr, ptr %2, align 8, !tbaa !12
  call void %18(ptr noundef %19)
  br label %20

20:                                               ; preds = %13, %6
  %21 = load ptr, ptr %2, align 8, !tbaa !12
  %22 = icmp eq ptr %21, null
  br i1 %22, label %24, label %23

23:                                               ; preds = %20
  call void @_ZdlPvm(ptr noundef %21, i64 noundef 16) #21
  br label %24

24:                                               ; preds = %5, %23, %20
  ret void
}