; Function Attrs: mustprogress uwtable
define void @llama_sampler_free(ptr noundef %0) local_unnamed_addr #0 {
  %2 = icmp eq ptr %0, null
  br i1 %2, label %9, label %3

3:                                                ; preds = %1
  %4 = load ptr, ptr %0, align 8, !tbaa !3
  %5 = getelementptr inbounds nuw i8, ptr %4, i64 40
  %6 = load ptr, ptr %5, align 8, !tbaa !16
  %.not = icmp eq ptr %6, null
  br i1 %.not, label %8, label %7

7:                                                ; preds = %3
  tail call void %6(ptr noundef nonnull %0)
  br label %8

8:                                                ; preds = %3, %7
  tail call void @_ZdlPvm(ptr noundef nonnull %0, i64 noundef 16) #32
  br label %9

9:                                                ; preds = %1, %8
  ret void
}